target datalayout = "e-m:e-p270:32:32-p271:32:32-p272:64:64-i64:64-i128:128-f80:128-n8:16:32:64-S128"
target triple = "x86_64-pc-linux-gnu"

%struct.RelationData = type { %struct.RelFileLocator, ptr, i32, i32, i8, i8, i8, i8, i8, i32, i32, i32, i32, ptr, ptr, i32, %struct.LockInfoData, ptr, ptr, ptr, ptr, ptr, i8, ptr, ptr, ptr, ptr, ptr, ptr, i32, ptr, i8, ptr, ptr, i32, i8, i32, ptr, i8, ptr, ptr, ptr, ptr, ptr, ptr, ptr, i32, ptr, ptr, ptr, ptr, ptr, ptr, ptr, ptr, ptr, ptr, ptr, ptr, ptr, ptr, ptr, ptr, ptr, ptr, ptr, i32, i8, ptr }
%struct.RelFileLocator = type { i32, i32, i32 }
%struct.LockInfoData = type { %struct.LockRelId }
%struct.LockRelId = type { i32, i32 }
%struct.nameData = type { [64 x i8] }
%struct.StringInfoData = type { ptr, i32, i32, i32 }
%struct.FormData_pg_class = type { i32, %struct.nameData, i32, i32, i32, i32, i32, i32, i32, i32, float, i32, i32, i8, i8, i8, i8, i16, i16, i8, i8, i8, i8, i8, i8, i8, i8, i32, i32, i32 }

; Function Attrs: inlinehint nounwind uwtable
define internal void @pq_writeint8(ptr noalias noundef %0, i8 noundef zeroext %1) #1 {
  %3 = alloca ptr, align 8
  %4 = alloca i8, align 1
  %5 = alloca i8, align 1
  store ptr %0, ptr %3, align 8
  store i8 %1, ptr %4, align 1
  call void @llvm.lifetime.start.p0(i64 1, ptr %5) #9
  %6 = load i8, ptr %4, align 1
  store i8 %6, ptr %5, align 1
  %7 = load ptr, ptr %3, align 8
  %8 = getelementptr inbounds nuw %struct.StringInfoData, ptr %7, i32 0, i32 0
  %9 = load ptr, ptr %8, align 8
  %10 = load ptr, ptr %3, align 8
  %11 = getelementptr inbounds nuw %struct.StringInfoData, ptr %10, i32 0, i32 1
  %12 = load i32, ptr %11, align 8
  %13 = sext i32 %12 to i64
  %14 = getelementptr inbounds i8, ptr %9, i64 %13
  call void @llvm.memcpy.p0.p0.i64(ptr align 1 %14, ptr align 1 %5, i64 1, i1 false)
  %15 = load ptr, ptr %3, align 8
  %16 = getelementptr inbounds nuw %struct.StringInfoData, ptr %15, i32 0, i32 1
  %17 = load i32, ptr %16, align 8
  %18 = sext i32 %17 to i64
  %19 = add i64 %18, 1
  %20 = trunc i64 %19 to i32
  store i32 %20, ptr %16, align 8
  call void @llvm.lifetime.end.p0(i64 1, ptr %5) #9
  ret void
}

; Function Attrs: inlinehint nounwind uwtable
define internal void @pq_writeint32(ptr noalias noundef %0, i32 noundef %1) #1 {
  %3 = alloca ptr, align 8
  %4 = alloca i32, align 4
  %5 = alloca i32, align 4
  store ptr %0, ptr %3, align 8
  store i32 %1, ptr %4, align 4
  call void @llvm.lifetime.start.p0(i64 4, ptr %5) #9
  %6 = load i32, ptr %4, align 4
  %7 = call i32 @llvm.bswap.i32(i32 %6)
  store i32 %7, ptr %5, align 4
  %8 = load ptr, ptr %3, align 8
  %9 = getelementptr inbounds nuw %struct.StringInfoData, ptr %8, i32 0, i32 0
  %10 = load ptr, ptr %9, align 8
  %11 = load ptr, ptr %3, align 8
  %12 = getelementptr inbounds nuw %struct.StringInfoData, ptr %11, i32 0, i32 1
  %13 = load i32, ptr %12, align 8
  %14 = sext i32 %13 to i64
  %15 = getelementptr inbounds i8, ptr %10, i64 %14
  call void @llvm.memcpy.p0.p0.i64(ptr align 1 %15, ptr align 4 %5, i64 4, i1 false)
  %16 = load ptr, ptr %3, align 8
  %17 = getelementptr inbounds nuw %struct.StringInfoData, ptr %16, i32 0, i32 1
  %18 = load i32, ptr %17, align 8
  %19 = sext i32 %18 to i64
  %20 = add i64 %19, 4
  %21 = trunc i64 %20 to i32
  store i32 %21, ptr %17, align 8
  call void @llvm.lifetime.end.p0(i64 4, ptr %5) #9
  ret void
}

; Function Attrs: inlinehint nounwind uwtable
define internal void @pq_sendint8(ptr noundef %0, i8 noundef zeroext %1) #1 {
  %3 = alloca ptr, align 8
  %4 = alloca i8, align 1
  store ptr %0, ptr %3, align 8
  store i8 %1, ptr %4, align 1
  %5 = load ptr, ptr %3, align 8
  call void @enlargeStringInfo(ptr noundef %5, i32 noundef 1)
  %6 = load ptr, ptr %3, align 8
  %7 = load i8, ptr %4, align 1
  call void @pq_writeint8(ptr noundef %6, i8 noundef zeroext %7)
  ret void
}

; Function Attrs: inlinehint nounwind uwtable
define internal void @pq_sendint32(ptr noundef %0, i32 noundef %1) #1 {
  %3 = alloca ptr, align 8
  %4 = alloca i32, align 4
  store ptr %0, ptr %3, align 8
  store i32 %1, ptr %4, align 4
  %5 = load ptr, ptr %3, align 8
  call void @enlargeStringInfo(ptr noundef %5, i32 noundef 4)
  %6 = load ptr, ptr %3, align 8
  %7 = load i32, ptr %4, align 4
  call void @pq_writeint32(ptr noundef %6, i32 noundef %7)
  ret void
}

; Function Attrs: inlinehint nounwind uwtable
define internal void @pq_sendbyte(ptr noundef %0, i8 noundef zeroext %1) #1 {
  %3 = alloca ptr, align 8
  %4 = alloca i8, align 1
  store ptr %0, ptr %3, align 8
  store i8 %1, ptr %4, align 1
  %5 = load ptr, ptr %3, align 8
  %6 = load i8, ptr %4, align 1
  call void @pq_sendint8(ptr noundef %5, i8 noundef zeroext %6)
  ret void
}

; Function Attrs: nounwind uwtable
define dso_local void @logicalrep_write_delete(ptr noundef %0, i32 noundef %1, ptr noundef %2, ptr noundef %3, i1 noundef zeroext %4, ptr noundef %5, i32 noundef %6) #0 {
  %8 = alloca ptr, align 8
  %9 = alloca i32, align 4
  %10 = alloca ptr, align 8
  %11 = alloca ptr, align 8
  %12 = alloca i8, align 1
  %13 = alloca ptr, align 8
  %14 = alloca i32, align 4
  store ptr %0, ptr %8, align 8
  store i32 %1, ptr %9, align 4
  store ptr %2, ptr %10, align 8
  store ptr %3, ptr %11, align 8
  %15 = zext i1 %4 to i8
  store i8 %15, ptr %12, align 1
  store ptr %5, ptr %13, align 8
  store i32 %6, ptr %14, align 4
  %16 = load ptr, ptr %8, align 8
  call void @pq_sendbyte(ptr noundef %16, i8 noundef zeroext 68)
  %17 = load i32, ptr %9, align 4
  %18 = icmp ne i32 %17, 0
  br i1 %18, label %19, label %22

19:                                               ; preds = %7
  %20 = load ptr, ptr %8, align 8
  %21 = load i32, ptr %9, align 4
  call void @pq_sendint32(ptr noundef %20, i32 noundef %21)
  br label %22

22:                                               ; preds = %19, %7
  %23 = load ptr, ptr %8, align 8
  %24 = load ptr, ptr %10, align 8
  %25 = getelementptr inbounds nuw %struct.RelationData, ptr %24, i32 0, i32 15
  %26 = load i32, ptr %25, align 8
  call void @pq_sendint32(ptr noundef %23, i32 noundef %26)
  %27 = load ptr, ptr %10, align 8
  %28 = getelementptr inbounds nuw %struct.RelationData, ptr %27, i32 0, i32 13
  %29 = load ptr, ptr %28, align 8
  %30 = getelementptr inbounds nuw %struct.FormData_pg_class, ptr %29, i32 0, i32 25
  %31 = load i8, ptr %30, align 2
  %32 = sext i8 %31 to i32
  %33 = icmp eq i32 %32, 102
  br i1 %33, label %34, label %36

34:                                               ; preds = %22
  %35 = load ptr, ptr %8, align 8
  call void @pq_sendbyte(ptr noundef %35, i8 noundef zeroext 79)
  br label %38

36:                                               ; preds = %22
  %37 = load ptr, ptr %8, align 8
  call void @pq_sendbyte(ptr noundef %37, i8 noundef zeroext 75)
  br label %38

38:                                               ; preds = %36, %34
  %39 = load ptr, ptr %8, align 8
  %40 = load ptr, ptr %10, align 8
  %41 = load ptr, ptr %11, align 8
  %42 = load i8, ptr %12, align 1, !range !4, !noundef !5
  %43 = trunc i8 %42 to i1
  %44 = load ptr, ptr %13, align 8
  %45 = load i32, ptr %14, align 4
  call void @logicalrep_write_tuple(ptr noundef %39, ptr noundef %40, ptr noundef %41, i1 noundef zeroext %43, ptr noundef %44, i32 noundef %45)
  ret void
}