; Function Attrs: nounwind uwtable
define dso_local void @logicalrep_write_delete(ptr noundef %0, i32 noundef %1, ptr noundef readonly captures(none) %2, ptr noundef %3, i1 noundef zeroext %4, ptr noundef %5, i32 noundef %6) local_unnamed_addr #0 {
  tail call void @enlargeStringInfo(ptr noundef %0, i32 noundef 1) #8
  tail call void @llvm.experimental.noalias.scope.decl(metadata !157)
  %8 = load ptr, ptr %0, align 8, !alias.scope !157
  %9 = getelementptr inbounds nuw i8, ptr %0, i64 8
  %10 = load i32, ptr %9, align 8, !alias.scope !157
  %11 = sext i32 %10 to i64
  %12 = getelementptr inbounds i8, ptr %8, i64 %11
  store i8 68, ptr %12, align 1, !noalias !157
  %13 = add i32 %10, 1
  store i32 %13, ptr %9, align 8, !alias.scope !157
  %.not = icmp eq i32 %1, 0
  br i1 %.not, label %21, label %14

14:                                               ; preds = %7
  tail call void @enlargeStringInfo(ptr noundef nonnull %0, i32 noundef 4) #8
  tail call void @llvm.experimental.noalias.scope.decl(metadata !160)
  %15 = tail call i32 @llvm.bswap.i32(i32 %1)
  %16 = load ptr, ptr %0, align 8, !alias.scope !160
  %17 = load i32, ptr %9, align 8, !alias.scope !160
  %18 = sext i32 %17 to i64
  %19 = getelementptr inbounds i8, ptr %16, i64 %18
  store i32 %15, ptr %19, align 1, !noalias !160
  %20 = add i32 %17, 4
  store i32 %20, ptr %9, align 8, !alias.scope !160
  br label %21

21:                                               ; preds = %14, %7
  %22 = getelementptr inbounds nuw i8, ptr %2, i64 72
  %23 = load i32, ptr %22, align 8
  tail call void @enlargeStringInfo(ptr noundef nonnull %0, i32 noundef 4) #8
  tail call void @llvm.experimental.noalias.scope.decl(metadata !163)
  %24 = tail call i32 @llvm.bswap.i32(i32 %23)
  %25 = load ptr, ptr %0, align 8, !alias.scope !163
  %26 = load i32, ptr %9, align 8, !alias.scope !163
  %27 = sext i32 %26 to i64
  %28 = getelementptr inbounds i8, ptr %25, i64 %27
  store i32 %24, ptr %28, align 1, !noalias !163
  %29 = add i32 %26, 4
  store i32 %29, ptr %9, align 8, !alias.scope !163
  %30 = getelementptr inbounds nuw i8, ptr %2, i64 56
  %31 = load ptr, ptr %30, align 8
  %32 = getelementptr inbounds nuw i8, ptr %31, i64 126
  %33 = load i8, ptr %32, align 2
  %34 = icmp eq i8 %33, 102
  tail call void @enlargeStringInfo(ptr noundef nonnull %0, i32 noundef 1) #8
  %. = select i1 %34, i8 79, i8 75
  %35 = load ptr, ptr %0, align 8
  %36 = load i32, ptr %9, align 8
  %37 = sext i32 %36 to i64
  %38 = getelementptr inbounds i8, ptr %35, i64 %37
  store i8 %., ptr %38, align 1, !noalias !122
  %storemerge = add i32 %36, 1
  store i32 %storemerge, ptr %9, align 8
  %39 = getelementptr i8, ptr %2, i64 64
  %.val = load ptr, ptr %39, align 8
  tail call fastcc void @logicalrep_write_tuple(ptr noundef nonnull %0, ptr %.val, ptr noundef %3, i1 noundef zeroext %4, ptr noundef %5, i32 noundef %6)
  ret void
}